target datalayout = "e-m:e-p270:32:32-p271:32:32-p272:64:64-i64:64-i128:128-f80:128-n8:16:32:64-S128"
target triple = "x86_64-pc-linux-gnu"

%struct.lua_TValue = type { %union.Value, [1 x i32], i32 }
%union.Value = type { ptr }

; Function Attrs: mustprogress nounwind uwtable
define internal noundef i32 @_ZL15luauF_vectormaxP9lua_StateP10lua_TValueS2_iS2_i(ptr noundef %0, ptr noundef %1, ptr noundef %2, i32 noundef %3, ptr noundef %4, i32 noundef %5) #0 {
  %7 = alloca i32, align 4
  %8 = alloca ptr, align 8
  %9 = alloca ptr, align 8
  %10 = alloca ptr, align 8
  %11 = alloca i32, align 4
  %12 = alloca ptr, align 8
  %13 = alloca i32, align 4
  %14 = alloca ptr, align 8
  %15 = alloca ptr, align 8
  %16 = alloca [4 x float], align 16
  %17 = alloca i32, align 4
  %18 = alloca i32, align 4
  %19 = alloca ptr, align 8
  %20 = alloca ptr, align 8
  %21 = alloca ptr, align 8
  store ptr %0, ptr %8, align 8, !tbaa !4
  store ptr %1, ptr %9, align 8, !tbaa !9
  store ptr %2, ptr %10, align 8, !tbaa !9
  store i32 %3, ptr %11, align 4, !tbaa !11
  store ptr %4, ptr %12, align 8, !tbaa !9
  store i32 %5, ptr %13, align 4, !tbaa !11
  %22 = load i32, ptr %13, align 4, !tbaa !11
  %23 = icmp sge i32 %22, 2
  br i1 %23, label %24, label %195

24:                                               ; preds = %6
  %25 = load i32, ptr %11, align 4, !tbaa !11
  %26 = icmp sle i32 %25, 1
  br i1 %26, label %27, label %195

27:                                               ; preds = %24
  %28 = load ptr, ptr %10, align 8, !tbaa !9
  %29 = getelementptr inbounds nuw %struct.lua_TValue, ptr %28, i32 0, i32 2
  %30 = load i32, ptr %29, align 4, !tbaa !13
  %31 = icmp eq i32 %30, 4
  br i1 %31, label %32, label %195

32:                                               ; preds = %27
  %33 = load ptr, ptr %12, align 8, !tbaa !9
  %34 = getelementptr inbounds nuw %struct.lua_TValue, ptr %33, i32 0, i32 2
  %35 = load i32, ptr %34, align 4, !tbaa !13
  %36 = icmp eq i32 %35, 4
  br i1 %36, label %37, label %195

37:                                               ; preds = %32
  call void @llvm.lifetime.start.p0(i64 8, ptr %14) #17
  %38 = load ptr, ptr %10, align 8, !tbaa !9
  %39 = getelementptr inbounds nuw %struct.lua_TValue, ptr %38, i32 0, i32 0
  %40 = getelementptr inbounds [2 x float], ptr %39, i64 0, i64 0
  store ptr %40, ptr %14, align 8, !tbaa !72
  call void @llvm.lifetime.start.p0(i64 8, ptr %15) #17
  %41 = load ptr, ptr %12, align 8, !tbaa !9
  %42 = getelementptr inbounds nuw %struct.lua_TValue, ptr %41, i32 0, i32 0
  %43 = getelementptr inbounds [2 x float], ptr %42, i64 0, i64 0
  store ptr %43, ptr %15, align 8, !tbaa !72
  call void @llvm.lifetime.start.p0(i64 16, ptr %16) #17
  %44 = load ptr, ptr %15, align 8, !tbaa !72
  %45 = getelementptr inbounds float, ptr %44, i64 0
  %46 = load float, ptr %45, align 4, !tbaa !70
  %47 = load ptr, ptr %14, align 8, !tbaa !72
  %48 = getelementptr inbounds float, ptr %47, i64 0
  %49 = load float, ptr %48, align 4, !tbaa !70
  %50 = fcmp ogt float %46, %49
  br i1 %50, label %51, label %55

51:                                               ; preds = %37
  %52 = load ptr, ptr %15, align 8, !tbaa !72
  %53 = getelementptr inbounds float, ptr %52, i64 0
  %54 = load float, ptr %53, align 4, !tbaa !70
  br label %59

55:                                               ; preds = %37
  %56 = load ptr, ptr %14, align 8, !tbaa !72
  %57 = getelementptr inbounds float, ptr %56, i64 0
  %58 = load float, ptr %57, align 4, !tbaa !70
  br label %59

59:                                               ; preds = %55, %51
  %60 = phi float [ %54, %51 ], [ %58, %55 ]
  %61 = getelementptr inbounds [4 x float], ptr %16, i64 0, i64 0
  store float %60, ptr %61, align 16, !tbaa !70
  %62 = load ptr, ptr %15, align 8, !tbaa !72
  %63 = getelementptr inbounds float, ptr %62, i64 1
  %64 = load float, ptr %63, align 4, !tbaa !70
  %65 = load ptr, ptr %14, align 8, !tbaa !72
  %66 = getelementptr inbounds float, ptr %65, i64 1
  %67 = load float, ptr %66, align 4, !tbaa !70
  %68 = fcmp ogt float %64, %67
  br i1 %68, label %69, label %73

69:                                               ; preds = %59
  %70 = load ptr, ptr %15, align 8, !tbaa !72
  %71 = getelementptr inbounds float, ptr %70, i64 1
  %72 = load float, ptr %71, align 4, !tbaa !70
  br label %77

73:                                               ; preds = %59
  %74 = load ptr, ptr %14, align 8, !tbaa !72
  %75 = getelementptr inbounds float, ptr %74, i64 1
  %76 = load float, ptr %75, align 4, !tbaa !70
  br label %77

77:                                               ; preds = %73, %69
  %78 = phi float [ %72, %69 ], [ %76, %73 ]
  %79 = getelementptr inbounds [4 x float], ptr %16, i64 0, i64 1
  store float %78, ptr %79, align 4, !tbaa !70
  %80 = load ptr, ptr %15, align 8, !tbaa !72
  %81 = getelementptr inbounds float, ptr %80, i64 2
  %82 = load float, ptr %81, align 4, !tbaa !70
  %83 = load ptr, ptr %14, align 8, !tbaa !72
  %84 = getelementptr inbounds float, ptr %83, i64 2
  %85 = load float, ptr %84, align 4, !tbaa !70
  %86 = fcmp ogt float %82, %85
  br i1 %86, label %87, label %91

87:                                               ; preds = %77
  %88 = load ptr, ptr %15, align 8, !tbaa !72
  %89 = getelementptr inbounds float, ptr %88, i64 2
  %90 = load float, ptr %89, align 4, !tbaa !70
  br label %95

91:                                               ; preds = %77
  %92 = load ptr, ptr %14, align 8, !tbaa !72
  %93 = getelementptr inbounds float, ptr %92, i64 2
  %94 = load float, ptr %93, align 4, !tbaa !70
  br label %95

95:                                               ; preds = %91, %87
  %96 = phi float [ %90, %87 ], [ %94, %91 ]
  %97 = getelementptr inbounds [4 x float], ptr %16, i64 0, i64 2
  store float %96, ptr %97, align 8, !tbaa !70
  %98 = getelementptr inbounds [4 x float], ptr %16, i64 0, i64 3
  store float 0.000000e+00, ptr %98, align 4, !tbaa !70
  call void @llvm.lifetime.start.p0(i64 4, ptr %17) #17
  store i32 3, ptr %17, align 4, !tbaa !11
  br label %99

99:                                               ; preds = %170, %95
  %100 = load i32, ptr %17, align 4, !tbaa !11
  %101 = load i32, ptr %13, align 4, !tbaa !11
  %102 = icmp sle i32 %100, %101
  br i1 %102, label %104, label %103

103:                                              ; preds = %99
  store i32 2, ptr %18, align 4
  br label %173

104:                                              ; preds = %99
  %105 = load ptr, ptr %12, align 8, !tbaa !9
  %106 = load i32, ptr %17, align 4, !tbaa !11
  %107 = sub nsw i32 %106, 2
  %108 = sext i32 %107 to i64
  %109 = getelementptr inbounds %struct.lua_TValue, ptr %105, i64 %108
  %110 = getelementptr inbounds nuw %struct.lua_TValue, ptr %109, i32 0, i32 2
  %111 = load i32, ptr %110, align 4, !tbaa !13
  %112 = icmp eq i32 %111, 4
  br i1 %112, label %114, label %113

113:                                              ; preds = %104
  store i32 -1, ptr %7, align 4
  store i32 1, ptr %18, align 4
  br label %173

114:                                              ; preds = %104
  call void @llvm.lifetime.start.p0(i64 8, ptr %19) #17
  %115 = load ptr, ptr %12, align 8, !tbaa !9
  %116 = load i32, ptr %17, align 4, !tbaa !11
  %117 = sub nsw i32 %116, 2
  %118 = sext i32 %117 to i64
  %119 = getelementptr inbounds %struct.lua_TValue, ptr %115, i64 %118
  %120 = getelementptr inbounds nuw %struct.lua_TValue, ptr %119, i32 0, i32 0
  %121 = getelementptr inbounds [2 x float], ptr %120, i64 0, i64 0
  store ptr %121, ptr %19, align 8, !tbaa !72
  %122 = load ptr, ptr %19, align 8, !tbaa !72
  %123 = getelementptr inbounds float, ptr %122, i64 0
  %124 = load float, ptr %123, align 4, !tbaa !70
  %125 = getelementptr inbounds [4 x float], ptr %16, i64 0, i64 0
  %126 = load float, ptr %125, align 16, !tbaa !70
  %127 = fcmp ogt float %124, %126
  br i1 %127, label %128, label %132

128:                                              ; preds = %114
  %129 = load ptr, ptr %19, align 8, !tbaa !72
  %130 = getelementptr inbounds float, ptr %129, i64 0
  %131 = load float, ptr %130, align 4, !tbaa !70
  br label %135

132:                                              ; preds = %114
  %133 = getelementptr inbounds [4 x float], ptr %16, i64 0, i64 0
  %134 = load float, ptr %133, align 16, !tbaa !70
  br label %135

135:                                              ; preds = %132, %128
  %136 = phi float [ %131, %128 ], [ %134, %132 ]
  %137 = getelementptr inbounds [4 x float], ptr %16, i64 0, i64 0
  store float %136, ptr %137, align 16, !tbaa !70
  %138 = load ptr, ptr %19, align 8, !tbaa !72
  %139 = getelementptr inbounds float, ptr %138, i64 1
  %140 = load float, ptr %139, align 4, !tbaa !70
  %141 = getelementptr inbounds [4 x float], ptr %16, i64 0, i64 1
  %142 = load float, ptr %141, align 4, !tbaa !70
  %143 = fcmp ogt float %140, %142
  br i1 %143, label %144, label %148

144:                                              ; preds = %135
  %145 = load ptr, ptr %19, align 8, !tbaa !72
  %146 = getelementptr inbounds float, ptr %145, i64 1
  %147 = load float, ptr %146, align 4, !tbaa !70
  br label %151

148:                                              ; preds = %135
  %149 = getelementptr inbounds [4 x float], ptr %16, i64 0, i64 1
  %150 = load float, ptr %149, align 4, !tbaa !70
  br label %151

151:                                              ; preds = %148, %144
  %152 = phi float [ %147, %144 ], [ %150, %148 ]
  %153 = getelementptr inbounds [4 x float], ptr %16, i64 0, i64 1
  store float %152, ptr %153, align 4, !tbaa !70
  %154 = load ptr, ptr %19, align 8, !tbaa !72
  %155 = getelementptr inbounds float, ptr %154, i64 2
  %156 = load float, ptr %155, align 4, !tbaa !70
  %157 = getelementptr inbounds [4 x float], ptr %16, i64 0, i64 2
  %158 = load float, ptr %157, align 8, !tbaa !70
  %159 = fcmp ogt float %156, %158
  br i1 %159, label %160, label %164

160:                                              ; preds = %151
  %161 = load ptr, ptr %19, align 8, !tbaa !72
  %162 = getelementptr inbounds float, ptr %161, i64 2
  %163 = load float, ptr %162, align 4, !tbaa !70
  br label %167

164:                                              ; preds = %151
  %165 = getelementptr inbounds [4 x float], ptr %16, i64 0, i64 2
  %166 = load float, ptr %165, align 8, !tbaa !70
  br label %167

167:                                              ; preds = %164, %160
  %168 = phi float [ %163, %160 ], [ %166, %164 ]
  %169 = getelementptr inbounds [4 x float], ptr %16, i64 0, i64 2
  store float %168, ptr %169, align 8, !tbaa !70
  call void @llvm.lifetime.end.p0(i64 8, ptr %19) #17
  br label %170

170:                                              ; preds = %167
  %171 = load i32, ptr %17, align 4, !tbaa !11
  %172 = add nsw i32 %171, 1
  store i32 %172, ptr %17, align 4, !tbaa !11
  br label %99, !llvm.loop !87

173:                                              ; preds = %113, %103
  call void @llvm.lifetime.end.p0(i64 4, ptr %17) #17
  %174 = load i32, ptr %18, align 4
  switch i32 %174, label %194 [
    i32 2, label %175
  ]

175:                                              ; preds = %173
  call void @llvm.lifetime.start.p0(i64 8, ptr %20) #17
  %176 = load ptr, ptr %9, align 8, !tbaa !9
  store ptr %176, ptr %20, align 8, !tbaa !9
  call void @llvm.lifetime.start.p0(i64 8, ptr %21) #17
  %177 = load ptr, ptr %20, align 8, !tbaa !9
  %178 = getelementptr inbounds nuw %struct.lua_TValue, ptr %177, i32 0, i32 0
  %179 = getelementptr inbounds [2 x float], ptr %178, i64 0, i64 0
  store ptr %179, ptr %21, align 8, !tbaa !72
  %180 = getelementptr inbounds [4 x float], ptr %16, i64 0, i64 0
  %181 = load float, ptr %180, align 16, !tbaa !70
  %182 = load ptr, ptr %21, align 8, !tbaa !72
  %183 = getelementptr inbounds float, ptr %182, i64 0
  store float %181, ptr %183, align 4, !tbaa !70
  %184 = getelementptr inbounds [4 x float], ptr %16, i64 0, i64 1
  %185 = load float, ptr %184, align 4, !tbaa !70
  %186 = load ptr, ptr %21, align 8, !tbaa !72
  %187 = getelementptr inbounds float, ptr %186, i64 1
  store float %185, ptr %187, align 4, !tbaa !70
  %188 = getelementptr inbounds [4 x float], ptr %16, i64 0, i64 2
  %189 = load float, ptr %188, align 8, !tbaa !70
  %190 = load ptr, ptr %21, align 8, !tbaa !72
  %191 = getelementptr inbounds float, ptr %190, i64 2
  store float %189, ptr %191, align 4, !tbaa !70
  %192 = load ptr, ptr %20, align 8, !tbaa !9
  %193 = getelementptr inbounds nuw %struct.lua_TValue, ptr %192, i32 0, i32 2
  store i32 4, ptr %193, align 4, !tbaa !13
  call void @llvm.lifetime.end.p0(i64 8, ptr %21) #17
  call void @llvm.lifetime.end.p0(i64 8, ptr %20) #17
  store i32 1, ptr %7, align 4
  store i32 1, ptr %18, align 4
  br label %194

194:                                              ; preds = %175, %173
  call void @llvm.lifetime.end.p0(i64 16, ptr %16) #17
  call void @llvm.lifetime.end.p0(i64 8, ptr %15) #17
  call void @llvm.lifetime.end.p0(i64 8, ptr %14) #17
  br label %196

195:                                              ; preds = %32, %27, %24, %6
  store i32 -1, ptr %7, align 4
  br label %196

196:                                              ; preds = %195, %194
  %197 = load i32, ptr %7, align 4
  ret i32 %197
}