; Function Attrs: mustprogress nofree norecurse nosync nounwind memory(argmem: readwrite) uwtable
define internal noundef range(i32 -1, 2) i32 @_ZL15luauF_vectormaxP9lua_StateP10lua_TValueS2_iS2_i(ptr readnone captures(none) %0, ptr noundef writeonly captures(none) %1, ptr noundef readonly captures(none) %2, i32 noundef %3, ptr noundef readonly captures(none) %4, i32 noundef %5) #5 {
  %7 = icmp sgt i32 %5, 1
  %8 = icmp slt i32 %3, 2
  %or.cond = and i1 %8, %7
  br i1 %or.cond, label %9, label %.loopexit

9:                                                ; preds = %6
  %10 = getelementptr inbounds nuw i8, ptr %2, i64 12
  %11 = load i32, ptr %10, align 4, !tbaa !4
  %12 = icmp eq i32 %11, 4
  br i1 %12, label %13, label %.loopexit

13:                                               ; preds = %9
  %14 = getelementptr inbounds nuw i8, ptr %4, i64 12
  %15 = load i32, ptr %14, align 4, !tbaa !4
  %16 = icmp eq i32 %15, 4
  br i1 %16, label %17, label %.loopexit

17:                                               ; preds = %13
  %18 = load float, ptr %4, align 4, !tbaa !51
  %19 = load float, ptr %2, align 4, !tbaa !51
  %20 = fcmp ogt float %18, %19
  %. = select i1 %20, float %18, float %19
  %21 = getelementptr inbounds nuw i8, ptr %4, i64 4
  %22 = load float, ptr %21, align 4, !tbaa !51
  %23 = getelementptr inbounds nuw i8, ptr %2, i64 4
  %24 = load float, ptr %23, align 4, !tbaa !51
  %25 = fcmp ogt float %22, %24
  %26 = select i1 %25, float %22, float %24
  %27 = getelementptr inbounds nuw i8, ptr %4, i64 8
  %28 = load float, ptr %27, align 4, !tbaa !51
  %29 = getelementptr inbounds nuw i8, ptr %2, i64 8
  %30 = load float, ptr %29, align 4, !tbaa !51
  %31 = fcmp ogt float %28, %30
  %32 = select i1 %31, float %28, float %30
  %.not59 = icmp samesign ult i32 %5, 3
  br i1 %.not59, label %.critedge, label %.lr.ph.preheader

.lr.ph.preheader:                                 ; preds = %17
  %33 = add nuw i32 %5, 1
  %wide.trip.count = zext i32 %33 to i64
  br label %.lr.ph

.lr.ph:                                           ; preds = %.lr.ph.preheader, %38
  %indvars.iv = phi i64 [ 3, %.lr.ph.preheader ], [ %indvars.iv.next, %38 ]
  %.sroa.12.063 = phi float [ %32, %.lr.ph.preheader ], [ %49, %38 ]
  %.sroa.7.062 = phi float [ %26, %.lr.ph.preheader ], [ %45, %38 ]
  %.sroa.0.060 = phi float [ %., %.lr.ph.preheader ], [ %..sroa.0.0, %38 ]
  %34 = getelementptr %struct.lua_TValue, ptr %4, i64 %indvars.iv
  %35 = getelementptr i8, ptr %34, i64 -20
  %36 = load i32, ptr %35, align 4, !tbaa !4
  %37 = icmp eq i32 %36, 4
  br i1 %37, label %38, label %.loopexit

38:                                               ; preds = %.lr.ph
  %39 = getelementptr i8, ptr %34, i64 -32
  %40 = load float, ptr %39, align 4, !tbaa !51
  %41 = fcmp ogt float %40, %.sroa.0.060
  %..sroa.0.0 = select i1 %41, float %40, float %.sroa.0.060
  %42 = getelementptr i8, ptr %34, i64 -28
  %43 = load float, ptr %42, align 4, !tbaa !51
  %44 = fcmp ogt float %43, %.sroa.7.062
  %45 = select i1 %44, float %43, float %.sroa.7.062
  %46 = getelementptr i8, ptr %34, i64 -24
  %47 = load float, ptr %46, align 4, !tbaa !51
  %48 = fcmp ogt float %47, %.sroa.12.063
  %49 = select i1 %48, float %47, float %.sroa.12.063
  %indvars.iv.next = add nuw nsw i64 %indvars.iv, 1
  %exitcond.not = icmp eq i64 %indvars.iv.next, %wide.trip.count
  br i1 %exitcond.not, label %.critedge, label %.lr.ph, !llvm.loop !82

.critedge:                                        ; preds = %38, %17
  %.sroa.0.0.lcssa = phi float [ %., %17 ], [ %..sroa.0.0, %38 ]
  %.sroa.7.0.lcssa = phi float [ %26, %17 ], [ %45, %38 ]
  %.sroa.12.0.lcssa = phi float [ %32, %17 ], [ %49, %38 ]
  store float %.sroa.0.0.lcssa, ptr %1, align 4, !tbaa !51
  %50 = getelementptr inbounds nuw i8, ptr %1, i64 4
  store float %.sroa.7.0.lcssa, ptr %50, align 4, !tbaa !51
  %51 = getelementptr inbounds nuw i8, ptr %1, i64 8
  store float %.sroa.12.0.lcssa, ptr %51, align 4, !tbaa !51
  %52 = getelementptr inbounds nuw i8, ptr %1, i64 12
  store i32 4, ptr %52, align 4, !tbaa !4
  br label %.loopexit

.loopexit:                                        ; preds = %.lr.ph, %6, %9, %13, %.critedge
  %.2 = phi i32 [ 1, %.critedge ], [ -1, %13 ], [ -1, %9 ], [ -1, %6 ], [ -1, %.lr.ph ]
  ret i32 %.2
}